; Function Attrs: nounwind uwtable
define ptr @Saig_ManRetimeNodeFwd(ptr noundef %0, ptr noundef readonly captures(none) %1, i32 noundef %2) local_unnamed_addr #0 {
  %4 = getelementptr i8, ptr %1, i64 8
  %.val = load ptr, ptr %4, align 8, !tbaa !3
  %5 = ptrtoint ptr %.val to i64
  %6 = and i64 %5, -2
  %7 = inttoptr i64 %6 to ptr
  %8 = getelementptr i8, ptr %1, i64 16
  %.val52 = load ptr, ptr %8, align 8, !tbaa !10
  %9 = ptrtoint ptr %.val52 to i64
  %10 = and i64 %9, -2
  %11 = inttoptr i64 %10 to ptr
  %12 = getelementptr i8, ptr %7, i64 24
  %.val53 = load i64, ptr %12, align 8
  %13 = and i64 %.val53, 7
  %.not = icmp eq i64 %13, 2
  br i1 %.not, label %14, label %Saig_ObjIsLo.exit.thread

14:                                               ; preds = %3
  %15 = getelementptr i8, ptr %11, i64 24
  %.val54 = load i64, ptr %15, align 8
  %16 = and i64 %.val54, 7
  %.not86 = icmp eq i64 %16, 2
  br i1 %.not86, label %Saig_ObjIsLo.exit, label %Saig_ObjIsLo.exit.thread

Saig_ObjIsLo.exit:                                ; preds = %14
  %.val3.i = load i32, ptr %7, align 8, !tbaa !11
  %17 = getelementptr i8, ptr %0, i64 108
  %.val4.i = load i32, ptr %17, align 4, !tbaa !12
  %.not87 = icmp slt i32 %.val3.i, %.val4.i
  br i1 %.not87, label %Saig_ObjIsLo.exit.thread, label %Saig_ObjIsLo.exit80

Saig_ObjIsLo.exit80:                              ; preds = %Saig_ObjIsLo.exit
  %.val3.i78 = load i32, ptr %11, align 8, !tbaa !11
  %.not88 = icmp slt i32 %.val3.i78, %.val4.i
  br i1 %.not88, label %Saig_ObjIsLo.exit.thread, label %18

18:                                               ; preds = %Saig_ObjIsLo.exit80
  %19 = getelementptr i8, ptr %0, i64 312
  %.val59 = load i32, ptr %19, align 8, !tbaa !24
  %20 = getelementptr i8, ptr %7, i64 32
  %.val60 = load i32, ptr %20, align 8, !tbaa !25
  %.not89 = icmp eq i32 %.val60, %.val59
  br i1 %.not89, label %23, label %21

21:                                               ; preds = %18
  %22 = getelementptr i8, ptr %11, i64 32
  %.val62 = load i32, ptr %22, align 8, !tbaa !25
  %.not90 = icmp eq i32 %.val62, %.val59
  br i1 %.not90, label %23, label %Saig_ObjIsLo.exit.thread

23:                                               ; preds = %21, %18
  %24 = sub i32 %.val3.i, %.val4.i
  %25 = getelementptr i8, ptr %0, i64 24
  %.val63 = load ptr, ptr %25, align 8, !tbaa !26
  %26 = getelementptr i8, ptr %0, i64 112
  %.val64 = load i32, ptr %26, align 8, !tbaa !27
  %27 = getelementptr i8, ptr %.val63, i64 8
  %.val63.val = load ptr, ptr %27, align 8, !tbaa !28
  %28 = add nsw i32 %24, %.val64
  %29 = sext i32 %28 to i64
  %30 = getelementptr inbounds ptr, ptr %.val63.val, i64 %29
  %31 = load ptr, ptr %30, align 8, !tbaa !30
  %32 = sub i32 %.val64, %.val4.i
  %33 = add i32 %32, %.val3.i78
  %34 = sext i32 %33 to i64
  %35 = getelementptr inbounds ptr, ptr %.val63.val, i64 %34
  %36 = load ptr, ptr %35, align 8, !tbaa !30
  %37 = getelementptr i8, ptr %31, i64 8
  %.val67 = load ptr, ptr %37, align 8, !tbaa !3
  %38 = getelementptr i8, ptr %36, i64 8
  %.val68 = load ptr, ptr %38, align 8, !tbaa !3
  %39 = ptrtoint ptr %.val67 to i64
  %40 = and i64 %5, 1
  %41 = xor i64 %40, %39
  %42 = inttoptr i64 %41 to ptr
  %43 = and i64 %9, 1
  %44 = ptrtoint ptr %.val68 to i64
  %45 = xor i64 %43, %44
  %.not50 = icmp eq i64 %40, 0
  %.not51 = icmp eq i32 %2, 0
  br i1 %.not51, label %48, label %46

46:                                               ; preds = %23
  %puts = tail call i32 @puts(ptr nonnull dereferenceable(1) @str)
  %47 = xor i64 %45, 1
  br label %48

48:                                               ; preds = %46, %23
  %.044.in = phi i64 [ %47, %46 ], [ %45, %23 ]
  %.044 = inttoptr i64 %.044.in to ptr
  %49 = tail call ptr @Aig_And(ptr noundef nonnull %0, ptr noundef %42, ptr noundef %.044) #3
  %50 = ptrtoint ptr %49 to i64
  %51 = select i1 %.not50, i64 0, i64 %43
  %52 = xor i64 %51, %50
  %53 = inttoptr i64 %52 to ptr
  %54 = tail call ptr @Aig_ObjCreateCo(ptr noundef nonnull %0, ptr noundef %53) #3
  %55 = getelementptr i8, ptr %0, i64 140
  %.val73 = load i32, ptr %55, align 4, !tbaa !31
  %56 = add nsw i32 %.val73, -1
  store i32 %56, ptr %54, align 8, !tbaa !11
  %57 = tail call ptr @Aig_ObjCreateCi(ptr noundef nonnull %0) #3
  %58 = getelementptr i8, ptr %0, i64 136
  %.val74 = load i32, ptr %58, align 8, !tbaa !31
  %59 = add nsw i32 %.val74, -1
  store i32 %59, ptr %57, align 8, !tbaa !11
  %60 = getelementptr inbounds nuw i8, ptr %0, i64 104
  %61 = load i32, ptr %60, align 8, !tbaa !32
  %62 = add nsw i32 %61, 1
  store i32 %62, ptr %60, align 8, !tbaa !32
  %.val75 = load i32, ptr %19, align 8, !tbaa !24
  %63 = getelementptr inbounds nuw i8, ptr %57, i64 32
  store i32 %.val75, ptr %63, align 8, !tbaa !25
  %64 = ptrtoint ptr %57 to i64
  %65 = xor i64 %51, %64
  %66 = inttoptr i64 %65 to ptr
  br label %Saig_ObjIsLo.exit.thread

Saig_ObjIsLo.exit.thread:                         ; preds = %Saig_ObjIsLo.exit, %14, %21, %Saig_ObjIsLo.exit80, %3, %48
  %.0 = phi ptr [ %66, %48 ], [ null, %14 ], [ null, %3 ], [ null, %Saig_ObjIsLo.exit80 ], [ null, %Saig_ObjIsLo.exit ], [ null, %21 ]
  ret ptr %.0
}